target datalayout = "e-m:e-p270:32:32-p271:32:32-p272:64:64-i64:64-i128:128-f80:128-n8:16:32:64-S128"
target triple = "x86_64-pc-linux-gnu"

%struct.AVTextFormatOptions = type { i32, i32, i32, i32, i32 }
%struct.AVBPrint = type { ptr, i32, i32, i32, [1 x i8], [1000 x i8] }
%struct.GraphPrintContext = type { ptr, ptr, %struct.AVDiagramConfig, i32, i32, i32, i32, %struct.AVBPrint }
%struct.AVDiagramConfig = type { i32, ptr, ptr }
%struct.AVTextFormatContext = type { ptr, ptr, ptr, ptr, ptr, ptr, i32, i32, [12 x i32], [12 x [100 x i32]], [12 x ptr], [12 x %struct.AVBPrint], i32, i32, i32, i32, i32, ptr, i32, ptr, i32 }
%struct.AVTextFormatter = type { ptr, i32, ptr, ptr, ptr, ptr, ptr, ptr, ptr, i32 }
%struct.AVTextFormatSection = type { i32, ptr, i32, [12 x i32], ptr, ptr, ptr, ptr, i32, ptr, ptr, ptr, ptr }

@print_graphs_format = external global ptr, align 8
@.str.2 = private unnamed_addr constant [5 x i8] c"json\00", align 1
@.str.3 = private unnamed_addr constant [2 x i8] c"=\00", align 1
@.str.4 = private unnamed_addr constant [54 x i8] c"No name specified for the filter graph output format\0A\00", align 1
@.str.5 = private unnamed_addr constant [51 x i8] c"Unknown filter graph output format with name '%s'\0A\00", align 1
@.str.6 = private unnamed_addr constant [50 x i8] c"avtextwriter_create_buffer failed. Error code %d\0A\00", align 1
@__const.init_graphprint.tf_options = private unnamed_addr constant %struct.AVTextFormatOptions { i32 -1, i32 0, i32 0, i32 0, i32 0 }, align 4
@prefix_num = internal global i32 0, align 4
@.str.7 = private unnamed_addr constant [8 x i8] c"mermaid\00", align 1
@.str.8 = private unnamed_addr constant [12 x i8] c"mermaidhtml\00", align 1

; Function Attrs: nounwind uwtable
define internal void @init_sections() #0 {
  %1 = alloca i32, align 4
  call void @llvm.lifetime.start.p0(i64 4, ptr %1) #9
  store i32 0, ptr %1, align 4, !tbaa !21
  br label %2

2:                                                ; preds = %12, %0
  %3 = load i32, ptr %1, align 4, !tbaa !21
  %4 = zext i32 %3 to i64
  %5 = icmp ult i64 %4, 28
  br i1 %5, label %7, label %6

6:                                                ; preds = %2
  call void @llvm.lifetime.end.p0(i64 4, ptr %1) #9
  br label %15

7:                                                ; preds = %2
  %8 = load i32, ptr %1, align 4, !tbaa !21
  %9 = zext i32 %8 to i64
  %10 = getelementptr inbounds nuw [28 x %struct.AVTextFormatSection], ptr @sections, i64 0, i64 %9
  %11 = getelementptr inbounds nuw %struct.AVTextFormatSection, ptr %10, i32 0, i32 8
  store i32 1, ptr %11, align 8, !tbaa !157
  br label %12

12:                                               ; preds = %7
  %13 = load i32, ptr %1, align 4, !tbaa !21
  %14 = add i32 %13, 1
  store i32 %14, ptr %1, align 4, !tbaa !21
  br label %2, !llvm.loop !159

15:                                               ; preds = %6
  ret void
}

; Function Attrs: nounwind uwtable
define internal i32 @init_graphprint(ptr noundef %0, ptr noundef %1) #0 {
  %3 = alloca i32, align 4
  %4 = alloca ptr, align 8
  %5 = alloca ptr, align 8
  %6 = alloca ptr, align 8
  %7 = alloca ptr, align 8
  %8 = alloca ptr, align 8
  %9 = alloca ptr, align 8
  %10 = alloca ptr, align 8
  %11 = alloca ptr, align 8
  %12 = alloca i32, align 4
  %13 = alloca %struct.AVTextFormatOptions, align 8
  %14 = alloca i32, align 4
  %15 = alloca i32, align 4
  %16 = alloca i32, align 4
  store ptr %0, ptr %4, align 8, !tbaa !29
  store ptr %1, ptr %5, align 8, !tbaa !15
  call void @llvm.lifetime.start.p0(i64 8, ptr %6) #9
  call void @llvm.lifetime.start.p0(i64 8, ptr %7) #9
  store ptr null, ptr %7, align 8, !tbaa !27
  call void @llvm.lifetime.start.p0(i64 8, ptr %8) #9
  store ptr null, ptr %8, align 8, !tbaa !32
  call void @llvm.lifetime.start.p0(i64 8, ptr %9) #9
  store ptr null, ptr %9, align 8, !tbaa !11
  call void @llvm.lifetime.start.p0(i64 8, ptr %10) #9
  store ptr null, ptr %10, align 8, !tbaa !33
  call void @llvm.lifetime.start.p0(i64 8, ptr %11) #9
  call void @llvm.lifetime.start.p0(i64 4, ptr %12) #9
  call void @init_sections()
  %17 = load ptr, ptr %4, align 8, !tbaa !29
  store ptr null, ptr %17, align 8, !tbaa !11
  %18 = load ptr, ptr %5, align 8, !tbaa !15
  call void @av_bprint_init(ptr noundef %18, i32 noundef 0, i32 noundef -1)
  %19 = load ptr, ptr @print_graphs_format, align 8, !tbaa !33
  %20 = icmp ne ptr %19, null
  br i1 %20, label %23, label %21

21:                                               ; preds = %2
  %22 = call noalias ptr @av_strdup(ptr noundef @.str.2)
  store ptr %22, ptr @print_graphs_format, align 8, !tbaa !33
  br label %23

23:                                               ; preds = %21, %2
  %24 = load ptr, ptr @print_graphs_format, align 8, !tbaa !33
  %25 = icmp ne ptr %24, null
  br i1 %25, label %27, label %26

26:                                               ; preds = %23
  store i32 -12, ptr %12, align 4, !tbaa !21
  br label %133

27:                                               ; preds = %23
  %28 = load ptr, ptr @print_graphs_format, align 8, !tbaa !33
  %29 = call ptr @av_strtok(ptr noundef %28, ptr noundef @.str.3, ptr noundef %10)
  store ptr %29, ptr %11, align 8, !tbaa !33
  %30 = load ptr, ptr %11, align 8, !tbaa !33
  %31 = icmp ne ptr %30, null
  br i1 %31, label %33, label %32

32:                                               ; preds = %27
  call void (ptr, i32, ptr, ...) @av_log(ptr noundef null, i32 noundef 16, ptr noundef @.str.4)
  store i32 -22, ptr %12, align 4, !tbaa !21
  br label %133

33:                                               ; preds = %27
  %34 = load ptr, ptr %11, align 8, !tbaa !33
  %35 = call ptr @avtext_get_formatter_by_name(ptr noundef %34)
  store ptr %35, ptr %6, align 8, !tbaa !34
  %36 = load ptr, ptr %6, align 8, !tbaa !34
  %37 = icmp ne ptr %36, null
  br i1 %37, label %40, label %38

38:                                               ; preds = %33
  %39 = load ptr, ptr %11, align 8, !tbaa !33
  call void (ptr, i32, ptr, ...) @av_log(ptr noundef null, i32 noundef 16, ptr noundef @.str.5, ptr noundef %39)
  store i32 -22, ptr %12, align 4, !tbaa !21
  br label %133

40:                                               ; preds = %33
  %41 = load ptr, ptr %5, align 8, !tbaa !15
  %42 = call i32 @avtextwriter_create_buffer(ptr noundef %8, ptr noundef %41)
  store i32 %42, ptr %12, align 4, !tbaa !21
  %43 = load i32, ptr %12, align 4, !tbaa !21
  %44 = icmp slt i32 %43, 0
  br i1 %44, label %45, label %47

45:                                               ; preds = %40
  %46 = load i32, ptr %12, align 4, !tbaa !21
  call void (ptr, i32, ptr, ...) @av_log(ptr noundef null, i32 noundef 16, ptr noundef @.str.6, i32 noundef %46)
  store i32 -22, ptr %12, align 4, !tbaa !21
  br label %133

47:                                               ; preds = %40
  call void @llvm.memcpy.p0.p0.i64(ptr align 4 %13, ptr align 4 @__const.init_graphprint.tf_options, i64 20, i1 false)
  %48 = load ptr, ptr %6, align 8, !tbaa !34
  %49 = load ptr, ptr %8, align 8, !tbaa !32
  %50 = load ptr, ptr %10, align 8, !tbaa !33
  %51 = call i32 @avtext_context_open(ptr noundef %7, ptr noundef %48, ptr noundef %49, ptr noundef %50, ptr noundef @sections, i32 noundef 28, ptr noundef byval(%struct.AVTextFormatOptions) align 8 %13, ptr noundef null)
  store i32 %51, ptr %12, align 4, !tbaa !21
  %52 = load i32, ptr %12, align 4, !tbaa !21
  %53 = icmp slt i32 %52, 0
  br i1 %53, label %54, label %55

54:                                               ; preds = %47
  br label %133

55:                                               ; preds = %47
  %56 = call noalias ptr @av_mallocz(i64 noundef 1080)
  store ptr %56, ptr %9, align 8, !tbaa !11
  %57 = load ptr, ptr %9, align 8, !tbaa !11
  %58 = icmp ne ptr %57, null
  br i1 %58, label %60, label %59

59:                                               ; preds = %55
  store i32 -12, ptr %12, align 4, !tbaa !21
  br label %133

60:                                               ; preds = %55
  %61 = load ptr, ptr %8, align 8, !tbaa !32
  %62 = load ptr, ptr %9, align 8, !tbaa !11
  %63 = getelementptr inbounds nuw %struct.GraphPrintContext, ptr %62, i32 0, i32 1
  store ptr %61, ptr %63, align 8, !tbaa !36
  %64 = load ptr, ptr %7, align 8, !tbaa !27
  %65 = load ptr, ptr %9, align 8, !tbaa !11
  %66 = getelementptr inbounds nuw %struct.GraphPrintContext, ptr %65, i32 0, i32 0
  store ptr %64, ptr %66, align 8, !tbaa !22
  %67 = load ptr, ptr %9, align 8, !tbaa !11
  %68 = getelementptr inbounds nuw %struct.GraphPrintContext, ptr %67, i32 0, i32 7
  call void @av_bprint_init(ptr noundef %68, i32 noundef 0, i32 noundef -1)
  store i32 1, ptr %14, align 4, !tbaa !21
  %69 = load i32, ptr %14, align 4
  %70 = atomicrmw add ptr @prefix_num, i32 %69 seq_cst, align 4
  store i32 %70, ptr %15, align 4
  %71 = load i32, ptr %15, align 4, !tbaa !21
  %72 = load ptr, ptr %9, align 8, !tbaa !11
  %73 = getelementptr inbounds nuw %struct.GraphPrintContext, ptr %72, i32 0, i32 3
  store i32 %71, ptr %73, align 8, !tbaa !37
  %74 = load ptr, ptr %7, align 8, !tbaa !27
  %75 = getelementptr inbounds nuw %struct.AVTextFormatContext, ptr %74, i32 0, i32 1
  %76 = load ptr, ptr %75, align 8, !tbaa !38
  %77 = getelementptr inbounds nuw %struct.AVTextFormatter, ptr %76, i32 0, i32 9
  %78 = load i32, ptr %77, align 8, !tbaa !43
  %79 = and i32 %78, 4
  %80 = icmp ne i32 %79, 0
  %81 = xor i1 %80, true
  %82 = xor i1 %81, true
  %83 = zext i1 %82 to i32
  %84 = load ptr, ptr %9, align 8, !tbaa !11
  %85 = getelementptr inbounds nuw %struct.GraphPrintContext, ptr %84, i32 0, i32 4
  store i32 %83, ptr %85, align 4, !tbaa !28
  %86 = load ptr, ptr %9, align 8, !tbaa !11
  %87 = getelementptr inbounds nuw %struct.GraphPrintContext, ptr %86, i32 0, i32 4
  %88 = load i32, ptr %87, align 4, !tbaa !28
  %89 = icmp ne i32 %88, 0
  br i1 %89, label %90, label %99

90:                                               ; preds = %60
  %91 = load ptr, ptr %7, align 8, !tbaa !27
  %92 = getelementptr inbounds nuw %struct.AVTextFormatContext, ptr %91, i32 0, i32 13
  store i32 1, ptr %92, align 4, !tbaa !45
  %93 = load ptr, ptr %7, align 8, !tbaa !27
  %94 = getelementptr inbounds nuw %struct.AVTextFormatContext, ptr %93, i32 0, i32 12
  store i32 -1, ptr %94, align 8, !tbaa !46
  %95 = load ptr, ptr %9, align 8, !tbaa !11
  %96 = getelementptr inbounds nuw %struct.GraphPrintContext, ptr %95, i32 0, i32 5
  store i32 1, ptr %96, align 8, !tbaa !47
  %97 = load ptr, ptr %9, align 8, !tbaa !11
  %98 = getelementptr inbounds nuw %struct.GraphPrintContext, ptr %97, i32 0, i32 6
  store i32 1, ptr %98, align 4, !tbaa !48
  br label %99

99:                                               ; preds = %90, %60
  %100 = load ptr, ptr %6, align 8, !tbaa !34
  %101 = getelementptr inbounds nuw %struct.AVTextFormatter, ptr %100, i32 0, i32 2
  %102 = load ptr, ptr %101, align 8, !tbaa !49
  %103 = call i32 @strcmp(ptr noundef %102, ptr noundef @.str.7) #10
  %104 = icmp ne i32 %103, 0
  br i1 %104, label %105, label %111

105:                                              ; preds = %99
  %106 = load ptr, ptr %6, align 8, !tbaa !34
  %107 = getelementptr inbounds nuw %struct.AVTextFormatter, ptr %106, i32 0, i32 2
  %108 = load ptr, ptr %107, align 8, !tbaa !49
  %109 = call i32 @strcmp(ptr noundef %108, ptr noundef @.str.8) #10
  %110 = icmp ne i32 %109, 0
  br i1 %110, label %130, label %111

111:                                              ; preds = %105, %99
  %112 = call ptr @ff_resman_get_string(i32 noundef 0)
  %113 = load ptr, ptr %9, align 8, !tbaa !11
  %114 = getelementptr inbounds nuw %struct.GraphPrintContext, ptr %113, i32 0, i32 2
  %115 = getelementptr inbounds nuw %struct.AVDiagramConfig, ptr %114, i32 0, i32 1
  store ptr %112, ptr %115, align 8, !tbaa !50
  %116 = load ptr, ptr %6, align 8, !tbaa !34
  %117 = getelementptr inbounds nuw %struct.AVTextFormatter, ptr %116, i32 0, i32 2
  %118 = load ptr, ptr %117, align 8, !tbaa !49
  %119 = call i32 @strcmp(ptr noundef %118, ptr noundef @.str.8) #10
  %120 = icmp ne i32 %119, 0
  br i1 %120, label %126, label %121

121:                                              ; preds = %111
  %122 = call ptr @ff_resman_get_string(i32 noundef 1)
  %123 = load ptr, ptr %9, align 8, !tbaa !11
  %124 = getelementptr inbounds nuw %struct.GraphPrintContext, ptr %123, i32 0, i32 2
  %125 = getelementptr inbounds nuw %struct.AVDiagramConfig, ptr %124, i32 0, i32 2
  store ptr %122, ptr %125, align 8, !tbaa !51
  br label %126

126:                                              ; preds = %121, %111
  %127 = load ptr, ptr %7, align 8, !tbaa !27
  %128 = load ptr, ptr %9, align 8, !tbaa !11
  %129 = getelementptr inbounds nuw %struct.GraphPrintContext, ptr %128, i32 0, i32 2
  call void @av_diagram_init(ptr noundef %127, ptr noundef %129)
  br label %130

130:                                              ; preds = %126, %105
  %131 = load ptr, ptr %9, align 8, !tbaa !11
  %132 = load ptr, ptr %4, align 8, !tbaa !29
  store ptr %131, ptr %132, align 8, !tbaa !11
  store i32 0, ptr %3, align 4
  store i32 1, ptr %16, align 4
  br label %148

133:                                              ; preds = %59, %54, %45, %38, %32, %26
  %134 = load ptr, ptr %7, align 8, !tbaa !27
  %135 = icmp ne ptr %134, null
  br i1 %135, label %136, label %138

136:                                              ; preds = %133
  %137 = call i32 @avtext_context_close(ptr noundef %7)
  br label %138

138:                                              ; preds = %136, %133
  %139 = load ptr, ptr %8, align 8, !tbaa !32
  %140 = icmp ne ptr %139, null
  br i1 %140, label %141, label %146

141:                                              ; preds = %138
  %142 = load ptr, ptr %7, align 8, !tbaa !27
  %143 = icmp ne ptr %142, null
  br i1 %143, label %146, label %144

144:                                              ; preds = %141
  %145 = call i32 @avtextwriter_context_close(ptr noundef %8)
  br label %146

146:                                              ; preds = %144, %141, %138
  call void @av_freep(ptr noundef %9)
  %147 = load i32, ptr %12, align 4, !tbaa !21
  store i32 %147, ptr %3, align 4
  store i32 1, ptr %16, align 4
  br label %148

148:                                              ; preds = %146, %130
  call void @llvm.lifetime.end.p0(i64 4, ptr %12) #9
  call void @llvm.lifetime.end.p0(i64 8, ptr %11) #9
  call void @llvm.lifetime.end.p0(i64 8, ptr %10) #9
  call void @llvm.lifetime.end.p0(i64 8, ptr %9) #9
  call void @llvm.lifetime.end.p0(i64 8, ptr %8) #9
  call void @llvm.lifetime.end.p0(i64 8, ptr %7) #9
  call void @llvm.lifetime.end.p0(i64 8, ptr %6) #9
  %149 = load i32, ptr %3, align 4
  ret i32 %149
}